C51 COMPILER V9.51   PWM                                                                   03/13/2015 21:31:30 PAGE 1   


C51 COMPILER V9.51, COMPILATION OF MODULE PWM
OBJECT MODULE PLACED IN .\DP8051\DP8051_Keil_951\Debug\PWM.obj
COMPILER INVOKED BY: C:\Program Files (x86)\Cypress\PSoC Creator\3.1\PSoC Creator\import\keil\pk51\9.51\C51\BIN\c51.exe 
                    -.\Generated_Source\PSoC3\PWM.c NOIV LARGE MODDP2 OMF2 VB(1) NOIP INCDIR(.,.\Generated_Source\PSoC3) FF(3) DB DF(DEBUG) W
                    -L(2) PR(.\DP8051\DP8051_Keil_951\Debug/PWM.lst) CD OT(2,SIZE) OJ(.\DP8051\DP8051_Keil_951\Debug\PWM.obj)

line level    source

   1          /*******************************************************************************
   2          * File Name: PWM.c
   3          * Version 3.10
   4          *
   5          * Description:
   6          *  The PWM User Module consist of an 8 or 16-bit counter with two 8 or 16-bit
   7          *  comparitors. Each instance of this user module is capable of generating
   8          *  two PWM outputs with the same period. The pulse width is selectable between
   9          *  1 and 255/65535. The period is selectable between 2 and 255/65536 clocks.
  10          *  The compare value output may be configured to be active when the present
  11          *  counter is less than or less than/equal to the compare value.
  12          *  A terminal count output is also provided. It generates a pulse one clock
  13          *  width wide when the counter is equal to zero.
  14          *
  15          * Note:
  16          *
  17          *******************************************************************************
  18          * Copyright 2008-2014, Cypress Semiconductor Corporation.  All rights reserved.
  19          * You may use this file only in accordance with the license, terms, conditions,
  20          * disclaimers, and limitations in the end user license agreement accompanying
  21          * the software package with which this file was provided.
  22          ********************************************************************************/
  23          
  24          #include "PWM.h"
  25          
  26          /* Error message for removed <resource> through optimization */
  27          #ifdef PWM_PWMUDB_genblk1_ctrlreg__REMOVED
                  #error PWM_v3_10 detected with a constant 0 for the enable or \
                       constant 1 for reset. This will prevent the component from operating.
              #endif /* PWM_PWMUDB_genblk1_ctrlreg__REMOVED */
  31          
  32          uint8 PWM_initVar = 0u;
  33          
  34          
  35          /*******************************************************************************
  36          * Function Name: PWM_Start
  37          ********************************************************************************
  38          *
  39          * Summary:
  40          *  The start function initializes the pwm with the default values, the
  41          *  enables the counter to begin counting.  It does not enable interrupts,
  42          *  the EnableInt command should be called if interrupt generation is required.
  43          *
  44          * Parameters:
  45          *  None
  46          *
  47          * Return:
  48          *  None
  49          *
  50          * Global variables:
  51          *  PWM_initVar: Is modified when this function is called for the
  52          *   first time. Is used to ensure that initialization happens only once.
  53          *
C51 COMPILER V9.51   PWM                                                                   03/13/2015 21:31:30 PAGE 2   

  54          *******************************************************************************/
  55          void PWM_Start(void) 
  56          {
  57   1          /* If not Initialized then initialize all required hardware and software */
  58   1          if(PWM_initVar == 0u)
  59   1          {
  60   2              PWM_Init();
  61   2              PWM_initVar = 1u;
  62   2          }
  63   1          PWM_Enable();
  64   1      
  65   1      }
  66          
  67          
  68          /*******************************************************************************
  69          * Function Name: PWM_Init
  70          ********************************************************************************
  71          *
  72          * Summary:
  73          *  Initialize component's parameters to the parameters set by user in the
  74          *  customizer of the component placed onto schematic. Usually called in
  75          *  PWM_Start().
  76          *
  77          * Parameters:
  78          *  None
  79          *
  80          * Return:
  81          *  None
  82          *
  83          *******************************************************************************/
  84          void PWM_Init(void) 
  85          {
  86   1          #if (PWM_UsingFixedFunction || PWM_UseControl)
  87   1              uint8 ctrl;
  88   1          #endif /* (PWM_UsingFixedFunction || PWM_UseControl) */
  89   1      
  90   1          #if(!PWM_UsingFixedFunction)
  91   1              #if(PWM_UseStatus)
                          /* Interrupt State Backup for Critical Region*/
                          uint8 PWM_interruptState;
                      #endif /* (PWM_UseStatus) */
  95   1          #endif /* (!PWM_UsingFixedFunction) */
  96   1      
  97   1          #if (PWM_UsingFixedFunction)
                      /* You are allowed to write the compare value (FF only) */
                      PWM_CONTROL |= PWM_CFG0_MODE;
                      #if (PWM_DeadBand2_4)
                          PWM_CONTROL |= PWM_CFG0_DB;
                      #endif /* (PWM_DeadBand2_4) */
              
                      ctrl = PWM_CONTROL3 & ((uint8 )(~PWM_CTRL_CMPMODE1_MASK));
                      PWM_CONTROL3 = ctrl | PWM_DEFAULT_COMPARE1_MODE;
              
                       /* Clear and Set SYNCTC and SYNCCMP bits of RT1 register */
                      PWM_RT1 &= ((uint8)(~PWM_RT1_MASK));
                      PWM_RT1 |= PWM_SYNC;
              
                      /*Enable DSI Sync all all inputs of the PWM*/
                      PWM_RT1 &= ((uint8)(~PWM_SYNCDSI_MASK));
                      PWM_RT1 |= PWM_SYNCDSI_EN;
              
                  #elif (PWM_UseControl)
C51 COMPILER V9.51   PWM                                                                   03/13/2015 21:31:30 PAGE 3   

 116   1              /* Set the default compare mode defined in the parameter */
 117   1              ctrl = PWM_CONTROL & ((uint8)(~PWM_CTRL_CMPMODE2_MASK)) &
 118   1                      ((uint8)(~PWM_CTRL_CMPMODE1_MASK));
 119   1              PWM_CONTROL = ctrl | PWM_DEFAULT_COMPARE2_MODE |
 120   1                                         PWM_DEFAULT_COMPARE1_MODE;
 121   1          #endif /* (PWM_UsingFixedFunction) */
 122   1      
 123   1          #if (!PWM_UsingFixedFunction)
 124   1              #if (PWM_Resolution == 8)
                          /* Set FIFO 0 to 1 byte register for period*/
                          PWM_AUX_CONTROLDP0 |= (PWM_AUX_CTRL_FIFO0_CLR);
                      #else /* (PWM_Resolution == 16)*/
 128   1                  /* Set FIFO 0 to 1 byte register for period */
 129   1                  PWM_AUX_CONTROLDP0 |= (PWM_AUX_CTRL_FIFO0_CLR);
 130   1                  PWM_AUX_CONTROLDP1 |= (PWM_AUX_CTRL_FIFO0_CLR);
 131   1              #endif /* (PWM_Resolution == 8) */
 132   1      
 133   1              PWM_WriteCounter(PWM_INIT_PERIOD_VALUE);
 134   1          #endif /* (!PWM_UsingFixedFunction) */
 135   1      
 136   1          PWM_WritePeriod(PWM_INIT_PERIOD_VALUE);
 137   1      
 138   1              #if (PWM_UseOneCompareMode)
 139   1                  PWM_WriteCompare(PWM_INIT_COMPARE_VALUE1);
 140   1              #else
                          PWM_WriteCompare1(PWM_INIT_COMPARE_VALUE1);
                          PWM_WriteCompare2(PWM_INIT_COMPARE_VALUE2);
                      #endif /* (PWM_UseOneCompareMode) */
 144   1      
 145   1              #if (PWM_KillModeMinTime)
                          PWM_WriteKillTime(PWM_MinimumKillTime);
                      #endif /* (PWM_KillModeMinTime) */
 148   1      
 149   1              #if (PWM_DeadBandUsed)
                          PWM_WriteDeadTime(PWM_INIT_DEAD_TIME);
                      #endif /* (PWM_DeadBandUsed) */
 152   1      
 153   1          #if (PWM_UseStatus || PWM_UsingFixedFunction)
                      PWM_SetInterruptMode(PWM_INIT_INTERRUPTS_MODE);
                  #endif /* (PWM_UseStatus || PWM_UsingFixedFunction) */
 156   1      
 157   1          #if (PWM_UsingFixedFunction)
                      /* Globally Enable the Fixed Function Block chosen */
                      PWM_GLOBAL_ENABLE |= PWM_BLOCK_EN_MASK;
                      /* Set the Interrupt source to come from the status register */
                      PWM_CONTROL2 |= PWM_CTRL2_IRQ_SEL;
                  #else
 163   1              #if(PWM_UseStatus)
              
                          /* CyEnterCriticalRegion and CyExitCriticalRegion are used to mark following region critical*/
                          /* Enter Critical Region*/
                          PWM_interruptState = CyEnterCriticalSection();
                          /* Use the interrupt output of the status register for IRQ output */
                          PWM_STATUS_AUX_CTRL |= PWM_STATUS_ACTL_INT_EN_MASK;
              
                           /* Exit Critical Region*/
                          CyExitCriticalSection(PWM_interruptState);
              
                          /* Clear the FIFO to enable the PWM_STATUS_FIFOFULL
                                 bit to be set on FIFO full. */
                          PWM_ClearFIFO();
                      #endif /* (PWM_UseStatus) */
C51 COMPILER V9.51   PWM                                                                   03/13/2015 21:31:30 PAGE 4   

 178   1          #endif /* (PWM_UsingFixedFunction) */
 179   1      }
 180          
 181          
 182          /*******************************************************************************
 183          * Function Name: PWM_Enable
 184          ********************************************************************************
 185          *
 186          * Summary:
 187          *  Enables the PWM block operation
 188          *
 189          * Parameters:
 190          *  None
 191          *
 192          * Return:
 193          *  None
 194          *
 195          * Side Effects:
 196          *  This works only if software enable mode is chosen
 197          *
 198          *******************************************************************************/
 199          void PWM_Enable(void) 
 200          {
 201   1          /* Globally Enable the Fixed Function Block chosen */
 202   1          #if (PWM_UsingFixedFunction)
                      PWM_GLOBAL_ENABLE |= PWM_BLOCK_EN_MASK;
                      PWM_GLOBAL_STBY_ENABLE |= PWM_BLOCK_STBY_EN_MASK;
                  #endif /* (PWM_UsingFixedFunction) */
 206   1      
 207   1          /* Enable the PWM from the control register  */
 208   1          #if (PWM_UseControl || PWM_UsingFixedFunction)
 209   1              PWM_CONTROL |= PWM_CTRL_ENABLE;
 210   1          #endif /* (PWM_UseControl || PWM_UsingFixedFunction) */
 211   1      }
 212          
 213          
 214          /*******************************************************************************
 215          * Function Name: PWM_Stop
 216          ********************************************************************************
 217          *
 218          * Summary:
 219          *  The stop function halts the PWM, but does not change any modes or disable
 220          *  interrupts.
 221          *
 222          * Parameters:
 223          *  None
 224          *
 225          * Return:
 226          *  None
 227          *
 228          * Side Effects:
 229          *  If the Enable mode is set to Hardware only then this function
 230          *  has no effect on the operation of the PWM
 231          *
 232          *******************************************************************************/
 233          void PWM_Stop(void) 
 234          {
 235   1          #if (PWM_UseControl || PWM_UsingFixedFunction)
 236   1              PWM_CONTROL &= ((uint8)(~PWM_CTRL_ENABLE));
 237   1          #endif /* (PWM_UseControl || PWM_UsingFixedFunction) */
 238   1      
 239   1          /* Globally disable the Fixed Function Block chosen */
C51 COMPILER V9.51   PWM                                                                   03/13/2015 21:31:30 PAGE 5   

 240   1          #if (PWM_UsingFixedFunction)
                      PWM_GLOBAL_ENABLE &= ((uint8)(~PWM_BLOCK_EN_MASK));
                      PWM_GLOBAL_STBY_ENABLE &= ((uint8)(~PWM_BLOCK_STBY_EN_MASK));
                  #endif /* (PWM_UsingFixedFunction) */
 244   1      }
 245          
 246          #if (PWM_UseOneCompareMode)
 247              #if (PWM_CompareMode1SW)
              
              
                      /*******************************************************************************
                      * Function Name: PWM_SetCompareMode
                      ********************************************************************************
                      *
                      * Summary:
                      *  This function writes the Compare Mode for the pwm output when in Dither mode,
                      *  Center Align Mode or One Output Mode.
                      *
                      * Parameters:
                      *  comparemode:  The new compare mode for the PWM output. Use the compare types
                      *                defined in the H file as input arguments.
                      *
                      * Return:
                      *  None
                      *
                      *******************************************************************************/
                      void PWM_SetCompareMode(uint8 comparemode) 
                      {
                          #if(PWM_UsingFixedFunction)
              
                              #if(0 != PWM_CTRL_CMPMODE1_SHIFT)
                                  uint8 comparemodemasked = ((uint8)((uint8)comparemode << PWM_CTRL_CMPMODE1_SHIFT));
                              #else
                                  uint8 comparemodemasked = comparemode;
                              #endif /* (0 != PWM_CTRL_CMPMODE1_SHIFT) */
              
                              PWM_CONTROL3 &= ((uint8)(~PWM_CTRL_CMPMODE1_MASK)); /*Clear Existing Data */
                              PWM_CONTROL3 |= comparemodemasked;
              
                          #elif (PWM_UseControl)
              
                              #if(0 != PWM_CTRL_CMPMODE1_SHIFT)
                                  uint8 comparemode1masked = ((uint8)((uint8)comparemode << PWM_CTRL_CMPMODE1_SHIFT)) &
                                                              PWM_CTRL_CMPMODE1_MASK;
                              #else
                                  uint8 comparemode1masked = comparemode & PWM_CTRL_CMPMODE1_MASK;
                              #endif /* (0 != PWM_CTRL_CMPMODE1_SHIFT) */
              
                              #if(0 != PWM_CTRL_CMPMODE2_SHIFT)
                                  uint8 comparemode2masked = ((uint8)((uint8)comparemode << PWM_CTRL_CMPMODE2_SHIFT)) &
                                                             PWM_CTRL_CMPMODE2_MASK;
                              #else
                                  uint8 comparemode2masked = comparemode & PWM_CTRL_CMPMODE2_MASK;
                              #endif /* (0 != PWM_CTRL_CMPMODE2_SHIFT) */
              
                              /*Clear existing mode */
                              PWM_CONTROL &= ((uint8)(~(PWM_CTRL_CMPMODE1_MASK |
                                                          PWM_CTRL_CMPMODE2_MASK)));
                              PWM_CONTROL |= (comparemode1masked | comparemode2masked);
              
                          #else
                              uint8 temp = comparemode;
C51 COMPILER V9.51   PWM                                                                   03/13/2015 21:31:30 PAGE 6   

                          #endif /* (PWM_UsingFixedFunction) */
                      }
                  #endif /* PWM_CompareMode1SW */
 305          
 306          #else /* UseOneCompareMode */
              
                  #if (PWM_CompareMode1SW)
              
              
                      /*******************************************************************************
                      * Function Name: PWM_SetCompareMode1
                      ********************************************************************************
                      *
                      * Summary:
                      *  This function writes the Compare Mode for the pwm or pwm1 output
                      *
                      * Parameters:
                      *  comparemode:  The new compare mode for the PWM output. Use the compare types
                      *                defined in the H file as input arguments.
                      *
                      * Return:
                      *  None
                      *
                      *******************************************************************************/
                      void PWM_SetCompareMode1(uint8 comparemode) 
                      {
                          #if(0 != PWM_CTRL_CMPMODE1_SHIFT)
                              uint8 comparemodemasked = ((uint8)((uint8)comparemode << PWM_CTRL_CMPMODE1_SHIFT)) &
                                                         PWM_CTRL_CMPMODE1_MASK;
                          #else
                              uint8 comparemodemasked = comparemode & PWM_CTRL_CMPMODE1_MASK;
                          #endif /* (0 != PWM_CTRL_CMPMODE1_SHIFT) */
              
                          #if (PWM_UseControl)
                              PWM_CONTROL &= ((uint8)(~PWM_CTRL_CMPMODE1_MASK)); /*Clear existing mode */
                              PWM_CONTROL |= comparemodemasked;
                          #endif /* (PWM_UseControl) */
                      }
                  #endif /* PWM_CompareMode1SW */
              
              #if (PWM_CompareMode2SW)
              
              
                  /*******************************************************************************
                  * Function Name: PWM_SetCompareMode2
                  ********************************************************************************
                  *
                  * Summary:
                  *  This function writes the Compare Mode for the pwm or pwm2 output
                  *
                  * Parameters:
                  *  comparemode:  The new compare mode for the PWM output. Use the compare types
                  *                defined in the H file as input arguments.
                  *
                  * Return:
                  *  None
                  *
                  *******************************************************************************/
                  void PWM_SetCompareMode2(uint8 comparemode) 
                  {
              
                      #if(0 != PWM_CTRL_CMPMODE2_SHIFT)
C51 COMPILER V9.51   PWM                                                                   03/13/2015 21:31:30 PAGE 7   

                          uint8 comparemodemasked = ((uint8)((uint8)comparemode << PWM_CTRL_CMPMODE2_SHIFT)) &
                                                               PWM_CTRL_CMPMODE2_MASK;
                      #else
                          uint8 comparemodemasked = comparemode & PWM_CTRL_CMPMODE2_MASK;
                      #endif /* (0 != PWM_CTRL_CMPMODE2_SHIFT) */
              
                      #if (PWM_UseControl)
                          PWM_CONTROL &= ((uint8)(~PWM_CTRL_CMPMODE2_MASK)); /*Clear existing mode */
                          PWM_CONTROL |= comparemodemasked;
                      #endif /* (PWM_UseControl) */
                  }
                  #endif /*PWM_CompareMode2SW */
              
              #endif /* UseOneCompareMode */
 378          
 379          
 380          #if (!PWM_UsingFixedFunction)
 381          
 382          
 383              /*******************************************************************************
 384              * Function Name: PWM_WriteCounter
 385              ********************************************************************************
 386              *
 387              * Summary:
 388              *  Writes a new counter value directly to the counter register. This will be
 389              *  implemented for that currently running period and only that period. This API
 390              *  is valid only for UDB implementation and not available for fixed function
 391              *  PWM implementation.
 392              *
 393              * Parameters:
 394              *  counter:  The period new period counter value.
 395              *
 396              * Return:
 397              *  None
 398              *
 399              * Side Effects:
 400              *  The PWM Period will be reloaded when a counter value will be a zero
 401              *
 402              *******************************************************************************/
 403              void PWM_WriteCounter(uint16 counter) \
 404                                                 
 405              {
 406   1              CY_SET_REG16(PWM_COUNTER_LSB_PTR, counter);
 407   1          }
 408          
 409          
 410              /*******************************************************************************
 411              * Function Name: PWM_ReadCounter
 412              ********************************************************************************
 413              *
 414              * Summary:
 415              *  This function returns the current value of the counter.  It doesn't matter
 416              *  if the counter is enabled or running.
 417              *
 418              * Parameters:
 419              *  None
 420              *
 421              * Return:
 422              *  The current value of the counter.
 423              *
 424              *******************************************************************************/
 425              uint16 PWM_ReadCounter(void) 
C51 COMPILER V9.51   PWM                                                                   03/13/2015 21:31:30 PAGE 8   

 426              {
 427   1              /* Force capture by reading Accumulator */
 428   1              /* Must first do a software capture to be able to read the counter */
 429   1              /* It is up to the user code to make sure there isn't already captured data in the FIFO */
 430   1                (void)CY_GET_REG8(PWM_COUNTERCAP_LSB_PTR_8BIT);
 431   1      
 432   1              /* Read the data from the FIFO */
 433   1              return (CY_GET_REG16(PWM_CAPTURE_LSB_PTR));
 434   1          }
 435          
 436              #if (PWM_UseStatus)
              
              
                      /*******************************************************************************
                      * Function Name: PWM_ClearFIFO
                      ********************************************************************************
                      *
                      * Summary:
                      *  This function clears all capture data from the capture FIFO
                      *
                      * Parameters:
                      *  None
                      *
                      * Return:
                      *  None
                      *
                      *******************************************************************************/
                      void PWM_ClearFIFO(void) 
                      {
                          while(0u != (PWM_ReadStatusRegister() & PWM_STATUS_FIFONEMPTY))
                          {
                              (void)PWM_ReadCapture();
                          }
                      }
              
                  #endif /* PWM_UseStatus */
 462          
 463          #endif /* !PWM_UsingFixedFunction */
 464          
 465          
 466          /*******************************************************************************
 467          * Function Name: PWM_WritePeriod
 468          ********************************************************************************
 469          *
 470          * Summary:
 471          *  This function is used to change the period of the counter.  The new period
 472          *  will be loaded the next time terminal count is detected.
 473          *
 474          * Parameters:
 475          *  period:  Period value. May be between 1 and (2^Resolution)-1.  A value of 0
 476          *           will result in the counter remaining at zero.
 477          *
 478          * Return:
 479          *  None
 480          *
 481          *******************************************************************************/
 482          void PWM_WritePeriod(uint16 period) 
 483          {
 484   1          #if(PWM_UsingFixedFunction)
                      CY_SET_REG16(PWM_PERIOD_LSB_PTR, (uint16)period);
                  #else
 487   1              CY_SET_REG16(PWM_PERIOD_LSB_PTR, period);
C51 COMPILER V9.51   PWM                                                                   03/13/2015 21:31:30 PAGE 9   

 488   1          #endif /* (PWM_UsingFixedFunction) */
 489   1      }
 490          
 491          #if (PWM_UseOneCompareMode)
 492          
 493          
 494              /*******************************************************************************
 495              * Function Name: PWM_WriteCompare
 496              ********************************************************************************
 497              *
 498              * Summary:
 499              *  This funtion is used to change the compare1 value when the PWM is in Dither
 500              *  mode. The compare output will reflect the new value on the next UDB clock.
 501              *  The compare output will be driven high when the present counter value is
 502              *  compared to the compare value based on the compare mode defined in
 503              *  Dither Mode.
 504              *
 505              * Parameters:
 506              *  compare:  New compare value.
 507              *
 508              * Return:
 509              *  None
 510              *
 511              * Side Effects:
 512              *  This function is only available if the PWM mode parameter is set to
 513              *  Dither Mode, Center Aligned Mode or One Output Mode
 514              *
 515              *******************************************************************************/
 516              void PWM_WriteCompare(uint16 compare) \
 517                                                 
 518              {
 519   1              #if(PWM_UsingFixedFunction)
                          CY_SET_REG16(PWM_COMPARE1_LSB_PTR, (uint16)compare);
                      #else
 522   1                  CY_SET_REG16(PWM_COMPARE1_LSB_PTR, compare);
 523   1              #endif /* (PWM_UsingFixedFunction) */
 524   1      
 525   1              #if (PWM_PWMMode == PWM__B_PWM__DITHER)
                          #if(PWM_UsingFixedFunction)
                              CY_SET_REG16(PWM_COMPARE2_LSB_PTR, (uint16)(compare + 1u));
                          #else
                              CY_SET_REG16(PWM_COMPARE2_LSB_PTR, (compare + 1u));
                          #endif /* (PWM_UsingFixedFunction) */
                      #endif /* (PWM_PWMMode == PWM__B_PWM__DITHER) */
 532   1          }
 533          
 534          
 535          #else
              
              
                  /*******************************************************************************
                  * Function Name: PWM_WriteCompare1
                  ********************************************************************************
                  *
                  * Summary:
                  *  This funtion is used to change the compare1 value.  The compare output will
                  *  reflect the new value on the next UDB clock.  The compare output will be
                  *  driven high when the present counter value is less than or less than or
                  *  equal to the compare register, depending on the mode.
                  *
                  * Parameters:
                  *  compare:  New compare value.
C51 COMPILER V9.51   PWM                                                                   03/13/2015 21:31:30 PAGE 10  

                  *
                  * Return:
                  *  None
                  *
                  *******************************************************************************/
                  void PWM_WriteCompare1(uint16 compare) \
                                                      
                  {
                      #if(PWM_UsingFixedFunction)
                          CY_SET_REG16(PWM_COMPARE1_LSB_PTR, (uint16)compare);
                      #else
                          CY_SET_REG16(PWM_COMPARE1_LSB_PTR, compare);
                      #endif /* (PWM_UsingFixedFunction) */
                  }
              
              
                  /*******************************************************************************
                  * Function Name: PWM_WriteCompare2
                  ********************************************************************************
                  *
                  * Summary:
                  *  This funtion is used to change the compare value, for compare1 output.
                  *  The compare output will reflect the new value on the next UDB clock.
                  *  The compare output will be driven high when the present counter value is
                  *  less than or less than or equal to the compare register, depending on the
                  *  mode.
                  *
                  * Parameters:
                  *  compare:  New compare value.
                  *
                  * Return:
                  *  None
                  *
                  *******************************************************************************/
                  void PWM_WriteCompare2(uint16 compare) \
                                                      
                  {
                      #if(PWM_UsingFixedFunction)
                          CY_SET_REG16(PWM_COMPARE2_LSB_PTR, compare);
                      #else
                          CY_SET_REG16(PWM_COMPARE2_LSB_PTR, compare);
                      #endif /* (PWM_UsingFixedFunction) */
                  }
              #endif /* UseOneCompareMode */
 594          
 595          #if (PWM_DeadBandUsed)
              
              
                  /*******************************************************************************
                  * Function Name: PWM_WriteDeadTime
                  ********************************************************************************
                  *
                  * Summary:
                  *  This function writes the dead-band counts to the corresponding register
                  *
                  * Parameters:
                  *  deadtime:  Number of counts for dead time
                  *
                  * Return:
                  *  None
                  *
                  *******************************************************************************/
C51 COMPILER V9.51   PWM                                                                   03/13/2015 21:31:30 PAGE 11  

                  void PWM_WriteDeadTime(uint8 deadtime) 
                  {
                      /* If using the Dead Band 1-255 mode then just write the register */
                      #if(!PWM_DeadBand2_4)
                          CY_SET_REG8(PWM_DEADBAND_COUNT_PTR, deadtime);
                      #else
                          /* Otherwise the data has to be masked and offset */
                          /* Clear existing data */
                          PWM_DEADBAND_COUNT &= ((uint8)(~PWM_DEADBAND_COUNT_MASK));
              
                          /* Set new dead time */
                          #if(PWM_DEADBAND_COUNT_SHIFT)
                              PWM_DEADBAND_COUNT |= ((uint8)((uint8)deadtime << PWM_DEADBAND_COUNT_SHIFT)) &
                                                                  PWM_DEADBAND_COUNT_MASK;
                          #else
                              PWM_DEADBAND_COUNT |= deadtime & PWM_DEADBAND_COUNT_MASK;
                          #endif /* (PWM_DEADBAND_COUNT_SHIFT) */
              
                      #endif /* (!PWM_DeadBand2_4) */
                  }
              
              
                  /*******************************************************************************
                  * Function Name: PWM_ReadDeadTime
                  ********************************************************************************
                  *
                  * Summary:
                  *  This function reads the dead-band counts from the corresponding register
                  *
                  * Parameters:
                  *  None
                  *
                  * Return:
                  *  Dead Band Counts
                  *
                  *******************************************************************************/
                  uint8 PWM_ReadDeadTime(void) 
                  {
                      /* If using the Dead Band 1-255 mode then just read the register */
                      #if(!PWM_DeadBand2_4)
                          return (CY_GET_REG8(PWM_DEADBAND_COUNT_PTR));
                      #else
              
                          /* Otherwise the data has to be masked and offset */
                          #if(PWM_DEADBAND_COUNT_SHIFT)
                              return ((uint8)(((uint8)(PWM_DEADBAND_COUNT & PWM_DEADBAND_COUNT_MASK)) >>
                                                                                         PWM_DEADBAND_COUNT_SHIFT));
                          #else
                              return (PWM_DEADBAND_COUNT & PWM_DEADBAND_COUNT_MASK);
                          #endif /* (PWM_DEADBAND_COUNT_SHIFT) */
                      #endif /* (!PWM_DeadBand2_4) */
                  }
              #endif /* DeadBandUsed */
 665          
 666          #if (PWM_UseStatus || PWM_UsingFixedFunction)
              
              
                  /*******************************************************************************
                  * Function Name: PWM_SetInterruptMode
                  ********************************************************************************
                  *
                  * Summary:
C51 COMPILER V9.51   PWM                                                                   03/13/2015 21:31:30 PAGE 12  

                  *  This function configures the interrupts mask control of theinterrupt
                  *  source status register.
                  *
                  * Parameters:
                  *  uint8 interruptMode: Bit field containing the interrupt sources enabled
                  *
                  * Return:
                  *  None
                  *
                  *******************************************************************************/
                  void PWM_SetInterruptMode(uint8 interruptMode) 
                  {
                      CY_SET_REG8(PWM_STATUS_MASK_PTR, interruptMode);
                  }
              
              
                  /*******************************************************************************
                  * Function Name: PWM_ReadStatusRegister
                  ********************************************************************************
                  *
                  * Summary:
                  *  This function returns the current state of the status register.
                  *
                  * Parameters:
                  *  None
                  *
                  * Return:
                  *  uint8 : Current status register value. The status register bits are:
                  *  [7:6] : Unused(0)
                  *  [5]   : Kill event output
                  *  [4]   : FIFO not empty
                  *  [3]   : FIFO full
                  *  [2]   : Terminal count
                  *  [1]   : Compare output 2
                  *  [0]   : Compare output 1
                  *
                  *******************************************************************************/
                  uint8 PWM_ReadStatusRegister(void) 
                  {
                      return (CY_GET_REG8(PWM_STATUS_PTR));
                  }
              
              #endif /* (PWM_UseStatus || PWM_UsingFixedFunction) */
 717          
 718          
 719          #if (PWM_UseControl)
 720          
 721          
 722              /*******************************************************************************
 723              * Function Name: PWM_ReadControlRegister
 724              ********************************************************************************
 725              *
 726              * Summary:
 727              *  Returns the current state of the control register. This API is available
 728              *  only if the control register is not removed.
 729              *
 730              * Parameters:
 731              *  None
 732              *
 733              * Return:
 734              *  uint8 : Current control register value
 735              *
C51 COMPILER V9.51   PWM                                                                   03/13/2015 21:31:30 PAGE 13  

 736              *******************************************************************************/
 737              uint8 PWM_ReadControlRegister(void) 
 738              {
 739   1              uint8 result;
 740   1      
 741   1              result = CY_GET_REG8(PWM_CONTROL_PTR);
 742   1              return (result);
 743   1          }
 744          
 745          
 746              /*******************************************************************************
 747              * Function Name: PWM_WriteControlRegister
 748              ********************************************************************************
 749              *
 750              * Summary:
 751              *  Sets the bit field of the control register. This API is available only if
 752              *  the control register is not removed.
 753              *
 754              * Parameters:
 755              *  uint8 control: Control register bit field, The status register bits are:
 756              *  [7]   : PWM Enable
 757              *  [6]   : Reset
 758              *  [5:3] : Compare Mode2
 759              *  [2:0] : Compare Mode2
 760              *
 761              * Return:
 762              *  None
 763              *
 764              *******************************************************************************/
 765              void PWM_WriteControlRegister(uint8 control) 
 766              {
 767   1              CY_SET_REG8(PWM_CONTROL_PTR, control);
 768   1          }
 769          
 770          #endif /* (PWM_UseControl) */
 771          
 772          
 773          #if (!PWM_UsingFixedFunction)
 774          
 775          
 776              /*******************************************************************************
 777              * Function Name: PWM_ReadCapture
 778              ********************************************************************************
 779              *
 780              * Summary:
 781              *  Reads the capture value from the capture FIFO.
 782              *
 783              * Parameters:
 784              *  None
 785              *
 786              * Return:
 787              *  uint8/uint16: The current capture value
 788              *
 789              *******************************************************************************/
 790              uint16 PWM_ReadCapture(void) 
 791              {
 792   1              return (CY_GET_REG16(PWM_CAPTURE_LSB_PTR));
 793   1          }
 794          
 795          #endif /* (!PWM_UsingFixedFunction) */
 796          
 797          
C51 COMPILER V9.51   PWM                                                                   03/13/2015 21:31:30 PAGE 14  

 798          #if (PWM_UseOneCompareMode)
 799          
 800          
 801              /*******************************************************************************
 802              * Function Name: PWM_ReadCompare
 803              ********************************************************************************
 804              *
 805              * Summary:
 806              *  Reads the compare value for the compare output when the PWM Mode parameter is
 807              *  set to Dither mode, Center Aligned mode, or One Output mode.
 808              *
 809              * Parameters:
 810              *  None
 811              *
 812              * Return:
 813              *  uint8/uint16: Current compare value
 814              *
 815              *******************************************************************************/
 816              uint16 PWM_ReadCompare(void) 
 817              {
 818   1              #if(PWM_UsingFixedFunction)
                          return ((uint16)CY_GET_REG16(PWM_COMPARE1_LSB_PTR));
                      #else
 821   1                  return (CY_GET_REG16(PWM_COMPARE1_LSB_PTR));
 822   1              #endif /* (PWM_UsingFixedFunction) */
 823   1          }
 824          
 825          #else
              
              
                  /*******************************************************************************
                  * Function Name: PWM_ReadCompare1
                  ********************************************************************************
                  *
                  * Summary:
                  *  Reads the compare value for the compare1 output.
                  *
                  * Parameters:
                  *  None
                  *
                  * Return:
                  *  uint8/uint16: Current compare value.
                  *
                  *******************************************************************************/
                  uint16 PWM_ReadCompare1(void) 
                  {
                      return (CY_GET_REG16(PWM_COMPARE1_LSB_PTR));
                  }
              
              
                  /*******************************************************************************
                  * Function Name: PWM_ReadCompare2
                  ********************************************************************************
                  *
                  * Summary:
                  *  Reads the compare value for the compare2 output.
                  *
                  * Parameters:
                  *  None
                  *
                  * Return:
                  *  uint8/uint16: Current compare value.
C51 COMPILER V9.51   PWM                                                                   03/13/2015 21:31:30 PAGE 15  

                  *
                  *******************************************************************************/
                  uint16 PWM_ReadCompare2(void) 
                  {
                      return (CY_GET_REG16(PWM_COMPARE2_LSB_PTR));
                  }
              
              #endif /* (PWM_UseOneCompareMode) */
 868          
 869          
 870          /*******************************************************************************
 871          * Function Name: PWM_ReadPeriod
 872          ********************************************************************************
 873          *
 874          * Summary:
 875          *  Reads the period value used by the PWM hardware.
 876          *
 877          * Parameters:
 878          *  None
 879          *
 880          * Return:
 881          *  uint8/16: Period value
 882          *
 883          *******************************************************************************/
 884          uint16 PWM_ReadPeriod(void) 
 885          {
 886   1          #if(PWM_UsingFixedFunction)
                      return ((uint16)CY_GET_REG16(PWM_PERIOD_LSB_PTR));
                  #else
 889   1              return (CY_GET_REG16(PWM_PERIOD_LSB_PTR));
 890   1          #endif /* (PWM_UsingFixedFunction) */
 891   1      }
 892          
 893          #if ( PWM_KillModeMinTime)
              
              
                  /*******************************************************************************
                  * Function Name: PWM_WriteKillTime
                  ********************************************************************************
                  *
                  * Summary:
                  *  Writes the kill time value used by the hardware when the Kill Mode
                  *  is set to Minimum Time.
                  *
                  * Parameters:
                  *  uint8: Minimum Time kill counts
                  *
                  * Return:
                  *  None
                  *
                  *******************************************************************************/
                  void PWM_WriteKillTime(uint8 killtime) 
                  {
                      CY_SET_REG8(PWM_KILLMODEMINTIME_PTR, killtime);
                  }
              
              
                  /*******************************************************************************
                  * Function Name: PWM_ReadKillTime
                  ********************************************************************************
                  *
                  * Summary:
C51 COMPILER V9.51   PWM                                                                   03/13/2015 21:31:30 PAGE 16  

                  *  Reads the kill time value used by the hardware when the Kill Mode is set
                  *  to Minimum Time.
                  *
                  * Parameters:
                  *  None
                  *
                  * Return:
                  *  uint8: The current Minimum Time kill counts
                  *
                  *******************************************************************************/
                  uint8 PWM_ReadKillTime(void) 
                  {
                      return (CY_GET_REG8(PWM_KILLMODEMINTIME_PTR));
                  }
              
              #endif /* ( PWM_KillModeMinTime) */
 938          
 939          /* [] END OF FILE */
C51 COMPILER V9.51   PWM                                                                   03/13/2015 21:31:30 PAGE 17  

ASSEMBLY LISTING OF GENERATED OBJECT CODE


             ; FUNCTION PWM_Start (BEGIN)
                                           ; SOURCE LINE # 55
                                           ; SOURCE LINE # 56
                                           ; SOURCE LINE # 58
0000 900000      R     MOV     DPTR,#PWM_initVar
0003 E0                MOVX    A,@DPTR
0004 FF                MOV     R7,A
0005 EF                MOV     A,R7
0006 7009              JNZ     ?C0001
                                           ; SOURCE LINE # 59
                                           ; SOURCE LINE # 60
0008 120000      R     LCALL   PWM_Init
                                           ; SOURCE LINE # 61
000B 900000      R     MOV     DPTR,#PWM_initVar
000E 7401              MOV     A,#01H
0010 F0                MOVX    @DPTR,A
                                           ; SOURCE LINE # 62
0011         ?C0001:
                                           ; SOURCE LINE # 63
0011 120000      R     LCALL   PWM_Enable
                                           ; SOURCE LINE # 65
0014 22                RET     
             ; FUNCTION PWM_Start (END)

             ; FUNCTION PWM_Init (BEGIN)
                                           ; SOURCE LINE # 84
                                           ; SOURCE LINE # 85
                                           ; SOURCE LINE # 118
0000 906473            MOV     DPTR,#06473H
0003 E0                MOVX    A,@DPTR
0004 FF                MOV     R7,A
0005 EF                MOV     A,R7
0006 54C0              ANL     A,#0C0H
0008 FF                MOV     R7,A
0009 900000      R     MOV     DPTR,#ctrl
000C EF                MOV     A,R7
000D F0                MOVX    @DPTR,A
                                           ; SOURCE LINE # 120
000E 900000      R     MOV     DPTR,#ctrl
0011 E0                MOVX    A,@DPTR
0012 FF                MOV     R7,A
0013 EF                MOV     A,R7
0014 4409              ORL     A,#09H
0016 FF                MOV     R7,A
0017 906473            MOV     DPTR,#06473H
001A EF                MOV     A,R7
001B F0                MOVX    @DPTR,A
                                           ; SOURCE LINE # 129
001C 906492            MOV     DPTR,#06492H
001F E0                MOVX    A,@DPTR
0020 FF                MOV     R7,A
0021 EF                MOV     A,R7
0022 4401              ORL     A,#01H
0024 FF                MOV     R7,A
0025 EF                MOV     A,R7
0026 F0                MOVX    @DPTR,A
                                           ; SOURCE LINE # 130
0027 906493            MOV     DPTR,#06493H
002A E0                MOVX    A,@DPTR
C51 COMPILER V9.51   PWM                                                                   03/13/2015 21:31:30 PAGE 18  

002B FF                MOV     R7,A
002C EF                MOV     A,R7
002D 4401              ORL     A,#01H
002F FF                MOV     R7,A
0030 EF                MOV     A,R7
0031 F0                MOVX    @DPTR,A
                                           ; SOURCE LINE # 133
0032 7F10              MOV     R7,#010H
0034 7E27              MOV     R6,#027H
0036 120000      R     LCALL   _PWM_WriteCounter
                                           ; SOURCE LINE # 136
0039 7F10              MOV     R7,#010H
003B 7E27              MOV     R6,#027H
003D 120000      R     LCALL   _PWM_WritePeriod
                                           ; SOURCE LINE # 139
0040 7F00              MOV     R7,#00H
0042 7E00              MOV     R6,#00H
0044 120000      R     LCALL   _PWM_WriteCompare
                                           ; SOURCE LINE # 179
0047 22                RET     
             ; FUNCTION PWM_Init (END)

             ; FUNCTION PWM_Enable (BEGIN)
                                           ; SOURCE LINE # 199
                                           ; SOURCE LINE # 200
                                           ; SOURCE LINE # 209
0000 906473            MOV     DPTR,#06473H
0003 E0                MOVX    A,@DPTR
0004 FF                MOV     R7,A
0005 EF                MOV     A,R7
0006 4480              ORL     A,#080H
0008 FF                MOV     R7,A
0009 EF                MOV     A,R7
000A F0                MOVX    @DPTR,A
                                           ; SOURCE LINE # 211
000B 22                RET     
             ; FUNCTION PWM_Enable (END)

             ; FUNCTION PWM_Stop (BEGIN)
                                           ; SOURCE LINE # 233
                                           ; SOURCE LINE # 234
                                           ; SOURCE LINE # 236
0000 906473            MOV     DPTR,#06473H
0003 E0                MOVX    A,@DPTR
0004 FF                MOV     R7,A
0005 EF                MOV     A,R7
0006 547F              ANL     A,#07FH
0008 FF                MOV     R7,A
0009 EF                MOV     A,R7
000A F0                MOVX    @DPTR,A
                                           ; SOURCE LINE # 244
000B 22                RET     
             ; FUNCTION PWM_Stop (END)

             ; FUNCTION _PWM_WriteCounter (BEGIN)
                                           ; SOURCE LINE # 403
0000 900000      R     MOV     DPTR,#counter
0003 EE                MOV     A,R6
0004 F0                MOVX    @DPTR,A
0005 A3                INC     DPTR
0006 EF                MOV     A,R7
0007 F0                MOVX    @DPTR,A
C51 COMPILER V9.51   PWM                                                                   03/13/2015 21:31:30 PAGE 19  

                                           ; SOURCE LINE # 405
                                           ; SOURCE LINE # 406
0008 7B02              MOV     R3,#02H
000A 7A64              MOV     R2,#064H
000C 7902              MOV     R1,#02H
000E 900000      R     MOV     DPTR,#counter
0011 E0                MOVX    A,@DPTR
0012 FC                MOV     R4,A
0013 A3                INC     DPTR
0014 E0                MOVX    A,@DPTR
0015 FD                MOV     R5,A
0016 120000      E     LCALL   _cywrite16_nodpx
                                           ; SOURCE LINE # 407
0019 22                RET     
             ; FUNCTION _PWM_WriteCounter (END)

             ; FUNCTION PWM_ReadCounter (BEGIN)
                                           ; SOURCE LINE # 425
                                           ; SOURCE LINE # 426
                                           ; SOURCE LINE # 430
0000 906412            MOV     DPTR,#06412H
0003 E0                MOVX    A,@DPTR
0004 FF                MOV     R7,A
                                           ; SOURCE LINE # 433
0005 7B02              MOV     R3,#02H
0007 7A64              MOV     R2,#064H
0009 7952              MOV     R1,#052H
000B 120000      E     LCALL   _cyread16_nodpx
                                           ; SOURCE LINE # 434
000E         ?C0007:
000E 22                RET     
             ; FUNCTION PWM_ReadCounter (END)

             ; FUNCTION _PWM_WritePeriod (BEGIN)
                                           ; SOURCE LINE # 482
0000 900000      R     MOV     DPTR,#period
0003 EE                MOV     A,R6
0004 F0                MOVX    @DPTR,A
0005 A3                INC     DPTR
0006 EF                MOV     A,R7
0007 F0                MOVX    @DPTR,A
                                           ; SOURCE LINE # 483
                                           ; SOURCE LINE # 487
0008 7B02              MOV     R3,#02H
000A 7A64              MOV     R2,#064H
000C 7942              MOV     R1,#042H
000E 900000      R     MOV     DPTR,#period
0011 E0                MOVX    A,@DPTR
0012 FC                MOV     R4,A
0013 A3                INC     DPTR
0014 E0                MOVX    A,@DPTR
0015 FD                MOV     R5,A
0016 120000      E     LCALL   _cywrite16_nodpx
                                           ; SOURCE LINE # 489
0019 22                RET     
             ; FUNCTION _PWM_WritePeriod (END)

             ; FUNCTION _PWM_WriteCompare (BEGIN)
                                           ; SOURCE LINE # 516
0000 900000      R     MOV     DPTR,#compare
0003 EE                MOV     A,R6
0004 F0                MOVX    @DPTR,A
C51 COMPILER V9.51   PWM                                                                   03/13/2015 21:31:30 PAGE 20  

0005 A3                INC     DPTR
0006 EF                MOV     A,R7
0007 F0                MOVX    @DPTR,A
                                           ; SOURCE LINE # 518
                                           ; SOURCE LINE # 522
0008 7B02              MOV     R3,#02H
000A 7A64              MOV     R2,#064H
000C 7922              MOV     R1,#022H
000E 900000      R     MOV     DPTR,#compare
0011 E0                MOVX    A,@DPTR
0012 FC                MOV     R4,A
0013 A3                INC     DPTR
0014 E0                MOVX    A,@DPTR
0015 FD                MOV     R5,A
0016 120000      E     LCALL   _cywrite16_nodpx
                                           ; SOURCE LINE # 532
0019 22                RET     
             ; FUNCTION _PWM_WriteCompare (END)

             ; FUNCTION PWM_ReadControlRegister (BEGIN)
                                           ; SOURCE LINE # 737
                                           ; SOURCE LINE # 738
                                           ; SOURCE LINE # 741
0000 906473            MOV     DPTR,#06473H
0003 E0                MOVX    A,@DPTR
0004 FF                MOV     R7,A
0005 900000      R     MOV     DPTR,#result
0008 EF                MOV     A,R7
0009 F0                MOVX    @DPTR,A
                                           ; SOURCE LINE # 742
000A 900000      R     MOV     DPTR,#result
000D E0                MOVX    A,@DPTR
000E FF                MOV     R7,A
                                           ; SOURCE LINE # 743
000F         ?C0010:
000F 22                RET     
             ; FUNCTION PWM_ReadControlRegister (END)

             ; FUNCTION _PWM_WriteControlRegister (BEGIN)
                                           ; SOURCE LINE # 765
0000 900000      R     MOV     DPTR,#control
0003 EF                MOV     A,R7
0004 F0                MOVX    @DPTR,A
                                           ; SOURCE LINE # 766
                                           ; SOURCE LINE # 767
0005 900000      R     MOV     DPTR,#control
0008 E0                MOVX    A,@DPTR
0009 FF                MOV     R7,A
000A 906473            MOV     DPTR,#06473H
000D EF                MOV     A,R7
000E F0                MOVX    @DPTR,A
                                           ; SOURCE LINE # 768
000F 22                RET     
             ; FUNCTION _PWM_WriteControlRegister (END)

             ; FUNCTION PWM_ReadCapture (BEGIN)
                                           ; SOURCE LINE # 790
                                           ; SOURCE LINE # 791
                                           ; SOURCE LINE # 792
0000 7B02              MOV     R3,#02H
0002 7A64              MOV     R2,#064H
0004 7952              MOV     R1,#052H
C51 COMPILER V9.51   PWM                                                                   03/13/2015 21:31:30 PAGE 21  

0006 120000      E     LCALL   _cyread16_nodpx
                                           ; SOURCE LINE # 793
0009         ?C0012:
0009 22                RET     
             ; FUNCTION PWM_ReadCapture (END)

             ; FUNCTION PWM_ReadCompare (BEGIN)
                                           ; SOURCE LINE # 816
                                           ; SOURCE LINE # 817
                                           ; SOURCE LINE # 821
0000 7B02              MOV     R3,#02H
0002 7A64              MOV     R2,#064H
0004 7922              MOV     R1,#022H
0006 120000      E     LCALL   _cyread16_nodpx
                                           ; SOURCE LINE # 823
0009         ?C0013:
0009 22                RET     
             ; FUNCTION PWM_ReadCompare (END)

             ; FUNCTION PWM_ReadPeriod (BEGIN)
                                           ; SOURCE LINE # 884
                                           ; SOURCE LINE # 885
                                           ; SOURCE LINE # 889
0000 7B02              MOV     R3,#02H
0002 7A64              MOV     R2,#064H
0004 7942              MOV     R1,#042H
0006 120000      E     LCALL   _cyread16_nodpx
                                           ; SOURCE LINE # 891
0009         ?C0014:
0009 22                RET     
             ; FUNCTION PWM_ReadPeriod (END)



MODULE INFORMATION:   STATIC OVERLAYABLE
   CODE SIZE        =    272    ----
   CONSTANT SIZE    =   ----    ----
   XDATA SIZE       =      1       9
   PDATA SIZE       =   ----    ----
   DATA SIZE        =   ----    ----
   IDATA SIZE       =   ----    ----
   BIT SIZE         =   ----    ----
   EDATA SIZE       =   ----    ----
   HDATA SIZE       =   ----    ----
   XDATA CONST SIZE =   ----    ----
   FAR CONST SIZE   =   ----    ----
END OF MODULE INFORMATION.


C51 COMPILATION COMPLETE.  0 WARNING(S),  0 ERROR(S)
