C51 COMPILER V9.51   MAIN                                                                  05/05/2015 19:28:05 PAGE 1   


C51 COMPILER V9.51, COMPILATION OF MODULE MAIN
OBJECT MODULE PLACED IN .\DP8051\DP8051_Keil_951\Release\main.obj
COMPILER INVOKED BY: C:\Program Files (x86)\Cypress\PSoC Creator\3.1\PSoC Creator\import\keil\pk51\9.51\C51\BIN\c51.exe 
                    -.\main.c NOIV LARGE MODDP2 OMF2 VB(1) NOIP INCDIR(.,.\Generated_Source\PSoC3) FF(3) DB WL(2) PR(.\DP8051\DP8051_Keil_951
                    -\Release/main.lst) CD OT(8,SIZE) OJ(.\DP8051\DP8051_Keil_951\Release\main.obj)

line level    source

*** MESSAGE C286 IN LINE 0 OF (null): license limits optimization to level 5
   1          #include <project.h>
   2          #include <stdio.h>
   3          
   4          #define INCH_PER_MAGNET 1.58
   5          #define SEC_PER_PERIOD 357.914
   6          
   7          #define THREE_FT_DUTY 900
   8          #define CENTER_DUTY 4560 
   9          #define CENTER_LINE 780
  10          
  11          #define Kp 1250
  12          #define Ki 120
  13          #define Kd 0
  14          
  15          #define Kp_steer 2.25
  16          #define Ki_steer 0
  17          #define Kd_steer 30000
  18          
  19          double gExpectedSpeed = 3.5;
  20          double gTotalTraveled = 0;
  21          
  22          double gprev_HE_count = 0;
  23          int gfirst_HE_read = 1;
  24          int gspeedMeasurements = 0;
  25          double gcurSpeed = 0;
  26          double speedCounts[5];
  27          double gki_speederror = 0;
  28          double gki_steererror = 0;
  29          int glinepos = 0;
  30          double gsteer_dutycycle = 0;
  31          
  32          int gnum_line_reads = 0;
  33          double gblack_pos_first_diff = 0;
  34          double gblack_pos_second_diff = 0;
  35          double gblack_totalpos_diff = 0;
  36          int gCounterNReads = 0;
  37          int gblackcount = 0;
  38          uint32 gfirstpos = 0;
  39          uint32 gsecondpos = 0;
  40          uint32 gthirdpos = 0;
  41          uint32 gfourthpos = 0;
  42          uint32 gcaptures = 0;
  43          int count = 0;
  44          int gsteer_error_prev = 0;
  45          
  46          uint8 direction = 0;
  47          
  48          int gONOFF = 0;
  49          int gcurr_dir = 0;
  50          
  51          
  52          CY_ISR(DIR_inter) {
C51 COMPILER V9.51   MAIN                                                                  05/05/2015 19:28:05 PAGE 2   

  53   1          if (gcurr_dir == 0) {
  54   2              LCD_ClearDisplay();
  55   2              LCD_PrintString("forwards!");
  56   2              gcurr_dir = 1;
  57   2              DIR_REG_Write(gcurr_dir);
  58   2          } 
  59   1          else if (gcurr_dir == 1) {
  60   2              LCD_ClearDisplay();
  61   2              LCD_PrintString("backwards!");
  62   2              gcurr_dir = 0;
  63   2              DIR_REG_Write(gcurr_dir);
  64   2          }
  65   1      }
  66          
  67          CY_ISR(ON_OFF_inter) {
  68   1          if (gONOFF == 0) {
  69   2              MOTOR_PWM_WriteCompare(1500);
  70   2              LCD_ClearDisplay();
  71   2              LCD_PrintString("motor on!");
  72   2              gONOFF = 1;
  73   2          }
  74   1          else if (gONOFF == 1) {
  75   2              MOTOR_PWM_WriteCompare(0);
  76   2              LCD_ClearDisplay();
  77   2              LCD_PrintString("motor off!");
  78   2              gONOFF = 0;
  79   2          }
  80   1      }
  81          
  82          int main()
  83          {
  84   1          //initialize all modules
  85   1          CYGlobalIntEnable;  
  86   1          
  87   1          DIR_ISR_Start();
  88   1          DIR_ISR_SetVector(DIR_inter);
  89   1          
  90   1          ON_OFF_ISR_Start();
  91   1          ON_OFF_ISR_SetVector(ON_OFF_inter);
  92   1          
  93   1          LCD_Start();
  94   1          LCD_Position(0,0);
  95   1          LCD_PrintString("ELE302 Carlab ");
  96   1          
  97   1          MOTOR_PWM_Start();
  98   1          MOTOR_PWM_CLK_Start();
  99   1          
 100   1          DIR_REG_Write(1);
 101   1          
 102   1      
 103   1          for(;;)
 104   1          {
 105   2          }
 106   1      }
C51 COMPILER V9.51   MAIN                                                                  05/05/2015 19:28:05 PAGE 3   

ASSEMBLY LISTING OF GENERATED OBJECT CODE


             ; FUNCTION DIR_inter (BEGIN)
0000 C0E0              PUSH    ACC
0002 C0F0              PUSH    B
0004 C083              PUSH    DPH
0006 C082              PUSH    DPL
0008 C085              PUSH    DPH1
000A C084              PUSH    DPL1
000C C086              PUSH    DPS
000E 758600            MOV     DPS,#00H
0011 C000        E     PUSH    ?C?XPAGE1SFR
0013 750000      E     MOV     ?C?XPAGE1SFR,#?C?XPAGE1RST
0016 C0D0              PUSH    PSW
0018 75D000            MOV     PSW,#00H
001B C000              PUSH    AR0
001D C001              PUSH    AR1
001F C002              PUSH    AR2
0021 C003              PUSH    AR3
0023 C004              PUSH    AR4
0025 C005              PUSH    AR5
0027 C006              PUSH    AR6
0029 C007              PUSH    AR7
                                           ; SOURCE LINE # 52
                                           ; SOURCE LINE # 53
002B 900000      R     MOV     DPTR,#gcurr_dir
002E E0                MOVX    A,@DPTR
002F 7002              JNZ     ?C0012
0031 A3                INC     DPTR
0032 E0                MOVX    A,@DPTR
0033         ?C0012:
0033 7022              JNZ     ?C0001
                                           ; SOURCE LINE # 54
0035 7F01              MOV     R7,#01H
0037 120000      E     LCALL   _LCD_WriteControl
                                           ; SOURCE LINE # 55
003A 7BFF              MOV     R3,#0FFH
003C 7A00        R     MOV     R2,#HIGH ?SC_0
003E 7900        R     MOV     R1,#LOW ?SC_0
0040 120000      E     LCALL   _LCD_PrintString
                                           ; SOURCE LINE # 56
0043 900000      R     MOV     DPTR,#gcurr_dir
0046 E4                CLR     A
0047 F0                MOVX    @DPTR,A
0048 A3                INC     DPTR
0049 04                INC     A
004A F0                MOVX    @DPTR,A
                                           ; SOURCE LINE # 57
004B 900000      R     MOV     DPTR,#gcurr_dir
004E E0                MOVX    A,@DPTR
004F A3                INC     DPTR
0050 E0                MOVX    A,@DPTR
0051 FF                MOV     R7,A
0052 120000      E     LCALL   _DIR_REG_Write
                                           ; SOURCE LINE # 58
0055 802B              SJMP    ?C0004
0057         ?C0001:
                                           ; SOURCE LINE # 59
0057 900000      R     MOV     DPTR,#gcurr_dir
005A E0                MOVX    A,@DPTR
005B 7004              JNZ     ?C0013
C51 COMPILER V9.51   MAIN                                                                  05/05/2015 19:28:05 PAGE 4   

005D A3                INC     DPTR
005E E0                MOVX    A,@DPTR
005F 6401              XRL     A,#01H
0061         ?C0013:
0061 701F              JNZ     ?C0004
                                           ; SOURCE LINE # 60
0063 7F01              MOV     R7,#01H
0065 120000      E     LCALL   _LCD_WriteControl
                                           ; SOURCE LINE # 61
0068 7BFF              MOV     R3,#0FFH
006A 7A00        R     MOV     R2,#HIGH ?SC_10
006C 7900        R     MOV     R1,#LOW ?SC_10
006E 120000      E     LCALL   _LCD_PrintString
                                           ; SOURCE LINE # 62
0071 900000      R     MOV     DPTR,#gcurr_dir
0074 E4                CLR     A
0075 F0                MOVX    @DPTR,A
0076 A3                INC     DPTR
0077 F0                MOVX    @DPTR,A
                                           ; SOURCE LINE # 63
0078 900000      R     MOV     DPTR,#gcurr_dir
007B E0                MOVX    A,@DPTR
007C A3                INC     DPTR
007D E0                MOVX    A,@DPTR
007E FF                MOV     R7,A
007F 120000      E     LCALL   _DIR_REG_Write
                                           ; SOURCE LINE # 64
                                           ; SOURCE LINE # 65
0082         ?C0004:
0082 D007              POP     AR7
0084 D006              POP     AR6
0086 D005              POP     AR5
0088 D004              POP     AR4
008A D003              POP     AR3
008C D002              POP     AR2
008E D001              POP     AR1
0090 D000              POP     AR0
0092 D0D0              POP     PSW
0094 D000        E     POP     ?C?XPAGE1SFR
0096 D086              POP     DPS
0098 D084              POP     DPL1
009A D085              POP     DPH1
009C D082              POP     DPL
009E D083              POP     DPH
00A0 D0F0              POP     B
00A2 D0E0              POP     ACC
00A4 32                RETI    
             ; FUNCTION DIR_inter (END)

             ; FUNCTION ON_OFF_inter (BEGIN)
0000 C0E0              PUSH    ACC
0002 C0F0              PUSH    B
0004 C083              PUSH    DPH
0006 C082              PUSH    DPL
0008 C085              PUSH    DPH1
000A C084              PUSH    DPL1
000C C086              PUSH    DPS
000E 758600            MOV     DPS,#00H
0011 C000        E     PUSH    ?C?XPAGE1SFR
0013 750000      E     MOV     ?C?XPAGE1SFR,#?C?XPAGE1RST
0016 C0D0              PUSH    PSW
0018 75D000            MOV     PSW,#00H
C51 COMPILER V9.51   MAIN                                                                  05/05/2015 19:28:05 PAGE 5   

001B C000              PUSH    AR0
001D C001              PUSH    AR1
001F C002              PUSH    AR2
0021 C003              PUSH    AR3
0023 C004              PUSH    AR4
0025 C005              PUSH    AR5
0027 C006              PUSH    AR6
0029 C007              PUSH    AR7
                                           ; SOURCE LINE # 67
                                           ; SOURCE LINE # 68
002B 900000      R     MOV     DPTR,#gONOFF
002E E0                MOVX    A,@DPTR
002F 7002              JNZ     ?C0014
0031 A3                INC     DPTR
0032 E0                MOVX    A,@DPTR
0033         ?C0014:
0033 701F              JNZ     ?C0005
                                           ; SOURCE LINE # 69
0035 7FDC              MOV     R7,#0DCH
0037 7E05              MOV     R6,#05H
0039 120000      E     LCALL   _MOTOR_PWM_WriteCompare
                                           ; SOURCE LINE # 70
003C 7F01              MOV     R7,#01H
003E 120000      E     LCALL   _LCD_WriteControl
                                           ; SOURCE LINE # 71
0041 7BFF              MOV     R3,#0FFH
0043 7A00        R     MOV     R2,#HIGH ?SC_21
0045 7900        R     MOV     R1,#LOW ?SC_21
0047 120000      E     LCALL   _LCD_PrintString
                                           ; SOURCE LINE # 72
004A 900000      R     MOV     DPTR,#gONOFF
004D E4                CLR     A
004E F0                MOVX    @DPTR,A
004F A3                INC     DPTR
0050 04                INC     A
0051 F0                MOVX    @DPTR,A
                                           ; SOURCE LINE # 73
0052 8026              SJMP    ?C0008
0054         ?C0005:
                                           ; SOURCE LINE # 74
0054 900000      R     MOV     DPTR,#gONOFF
0057 E0                MOVX    A,@DPTR
0058 7004              JNZ     ?C0015
005A A3                INC     DPTR
005B E0                MOVX    A,@DPTR
005C 6401              XRL     A,#01H
005E         ?C0015:
005E 701A              JNZ     ?C0008
                                           ; SOURCE LINE # 75
0060 FF                MOV     R7,A
0061 FE                MOV     R6,A
0062 120000      E     LCALL   _MOTOR_PWM_WriteCompare
                                           ; SOURCE LINE # 76
0065 7F01              MOV     R7,#01H
0067 120000      E     LCALL   _LCD_WriteControl
                                           ; SOURCE LINE # 77
006A 7BFF              MOV     R3,#0FFH
006C 7A00        R     MOV     R2,#HIGH ?SC_31
006E 7900        R     MOV     R1,#LOW ?SC_31
0070 120000      E     LCALL   _LCD_PrintString
                                           ; SOURCE LINE # 78
0073 900000      R     MOV     DPTR,#gONOFF
C51 COMPILER V9.51   MAIN                                                                  05/05/2015 19:28:05 PAGE 6   

0076 E4                CLR     A
0077 F0                MOVX    @DPTR,A
0078 A3                INC     DPTR
0079 F0                MOVX    @DPTR,A
                                           ; SOURCE LINE # 79
                                           ; SOURCE LINE # 80
007A         ?C0008:
007A D007              POP     AR7
007C D006              POP     AR6
007E D005              POP     AR5
0080 D004              POP     AR4
0082 D003              POP     AR3
0084 D002              POP     AR2
0086 D001              POP     AR1
0088 D000              POP     AR0
008A D0D0              POP     PSW
008C D000        E     POP     ?C?XPAGE1SFR
008E D086              POP     DPS
0090 D084              POP     DPL1
0092 D085              POP     DPH1
0094 D082              POP     DPL
0096 D083              POP     DPH
0098 D0F0              POP     B
009A D0E0              POP     ACC
009C 32                RETI    
             ; FUNCTION ON_OFF_inter (END)

             ; FUNCTION main (BEGIN)
                                           ; SOURCE LINE # 82
                                           ; SOURCE LINE # 83
                                           ; SOURCE LINE # 85
0000 D2AF              SETB    EA
0002 9044F4            MOV     DPTR,#044F4H
0005 74FD              MOV     A,#0FDH
0007 F0                MOVX    @DPTR,A
                                           ; SOURCE LINE # 87
0008 120000      E     LCALL   DIR_ISR_Start
                                           ; SOURCE LINE # 88
000B 7E00        R     MOV     R6,#HIGH DIR_inter
000D 7F00        R     MOV     R7,#LOW DIR_inter
000F 120000      E     LCALL   _DIR_ISR_SetVector
                                           ; SOURCE LINE # 90
0012 120000      E     LCALL   ON_OFF_ISR_Start
                                           ; SOURCE LINE # 91
0015 7E00        R     MOV     R6,#HIGH ON_OFF_inter
0017 7F00        R     MOV     R7,#LOW ON_OFF_inter
0019 120000      E     LCALL   _ON_OFF_ISR_SetVector
                                           ; SOURCE LINE # 93
001C 120000      E     LCALL   LCD_Start
                                           ; SOURCE LINE # 94
001F E4                CLR     A
0020 FD                MOV     R5,A
0021 FF                MOV     R7,A
0022 120000      E     LCALL   _LCD_Position
                                           ; SOURCE LINE # 95
0025 7BFF              MOV     R3,#0FFH
0027 7A00        R     MOV     R2,#HIGH ?SC_42
0029 7900        R     MOV     R1,#LOW ?SC_42
002B 120000      E     LCALL   _LCD_PrintString
                                           ; SOURCE LINE # 97
002E 120000      E     LCALL   MOTOR_PWM_Start
                                           ; SOURCE LINE # 98
C51 COMPILER V9.51   MAIN                                                                  05/05/2015 19:28:05 PAGE 7   

0031 120000      E     LCALL   MOTOR_PWM_CLK_Start
                                           ; SOURCE LINE # 100
0034 7F01              MOV     R7,#01H
0036 120000      E     LCALL   _DIR_REG_Write
                                           ; SOURCE LINE # 103
0039         ?C0009:
                                           ; SOURCE LINE # 104
                                           ; SOURCE LINE # 105
0039 80FE              SJMP    ?C0009
003B 22                RET     
             ; FUNCTION main (END)



MODULE INFORMATION:   STATIC OVERLAYABLE
   CODE SIZE        =    382    ----
   CONSTANT SIZE    =     57    ----
   XDATA SIZE       =    101    ----
   PDATA SIZE       =   ----    ----
   DATA SIZE        =   ----    ----
   IDATA SIZE       =   ----    ----
   BIT SIZE         =   ----    ----
   EDATA SIZE       =   ----    ----
   HDATA SIZE       =   ----    ----
   XDATA CONST SIZE =   ----    ----
   FAR CONST SIZE   =   ----    ----
END OF MODULE INFORMATION.


C51 COMPILATION COMPLETE.  0 WARNING(S),  0 ERROR(S)
